target datalayout = "e-m:e-p270:32:32-p271:32:32-p272:64:64-i64:64-i128:128-f80:128-n8:16:32:64-S128"
target triple = "x86_64-pc-linux-gnu"

@.str = private unnamed_addr constant [29 x i8] c"%s:%u: failed assertion \22%s\22\00", align 1
@.str.1 = private unnamed_addr constant [37 x i8] c"epan/dissectors/packet-adb_service.c\00", align 1
@.str.2 = private unnamed_addr constant [6 x i8] c"value\00", align 1

; Function Attrs: null_pointer_is_valid sspstrong uwtable
define hidden i32 @dissect_ascii_uint32(ptr noundef %0, i32 noundef %1, i32 noundef %2, i32 noundef %3, ptr noundef %4, i32 noundef %5, ptr noundef %6) #0 {
  %8 = alloca ptr, align 8
  %9 = alloca i32, align 4
  %10 = alloca i32, align 4
  %11 = alloca i32, align 4
  %12 = alloca ptr, align 8
  %13 = alloca i32, align 4
  %14 = alloca ptr, align 8
  %15 = alloca ptr, align 8
  %16 = alloca ptr, align 8
  %17 = alloca [5 x i8], align 1
  store ptr %0, ptr %8, align 8
  store i32 %1, ptr %9, align 4
  store i32 %2, ptr %10, align 4
  store i32 %3, ptr %11, align 4
  store ptr %4, ptr %12, align 8
  store i32 %5, ptr %13, align 4
  store ptr %6, ptr %14, align 8
  call void @llvm.lifetime.start.p0(i64 8, ptr %15) #9
  call void @llvm.lifetime.start.p0(i64 8, ptr %16) #9
  call void @llvm.lifetime.start.p0(i64 5, ptr %17) #9
  %18 = load ptr, ptr %14, align 8
  %19 = icmp ne ptr %18, null
  br i1 %19, label %20, label %21

20:                                               ; preds = %7
  br label %23

21:                                               ; preds = %7
  call void (ptr, ...) @proto_report_dissector_bug(ptr noundef @.str, ptr noundef @.str.1, i32 noundef 114, ptr noundef @.str.2) #10
  unreachable

22:                                               ; No predecessors!
  br label %23

23:                                               ; preds = %22, %20
  %24 = load ptr, ptr %12, align 8
  %25 = getelementptr inbounds [5 x i8], ptr %17, i64 0, i64 0
  %26 = load i32, ptr %13, align 4
  %27 = call ptr @tvb_memcpy(ptr noundef %24, ptr noundef %25, i32 noundef %26, i64 noundef 4)
  %28 = getelementptr [5 x i8], ptr %17, i64 0, i64 4
  store i8 0, ptr %28, align 1
  %29 = load ptr, ptr %8, align 8
  %30 = load i32, ptr %9, align 4
  %31 = load ptr, ptr %12, align 8
  %32 = load i32, ptr %13, align 4
  %33 = call ptr @proto_tree_add_item(ptr noundef %29, i32 noundef %30, ptr noundef %31, i32 noundef %32, i32 noundef 4, i32 noundef 0)
  store ptr %33, ptr %15, align 8
  %34 = load ptr, ptr %15, align 8
  %35 = load i32, ptr %10, align 4
  %36 = call ptr @proto_item_add_subtree(ptr noundef %34, i32 noundef %35)
  store ptr %36, ptr %16, align 8
  %37 = getelementptr inbounds [5 x i8], ptr %17, i64 0, i64 0
  %38 = call i64 @g_ascii_strtoull(ptr noundef %37, ptr noundef null, i32 noundef 16)
  %39 = trunc i64 %38 to i32
  %40 = load ptr, ptr %14, align 8
  store i32 %39, ptr %40, align 4
  %41 = load ptr, ptr %16, align 8
  %42 = load i32, ptr %11, align 4
  %43 = load ptr, ptr %12, align 8
  %44 = load i32, ptr %13, align 4
  %45 = load ptr, ptr %14, align 8
  %46 = load i32, ptr %45, align 4
  %47 = call ptr @proto_tree_add_uint(ptr noundef %41, i32 noundef %42, ptr noundef %43, i32 noundef %44, i32 noundef 4, i32 noundef %46)
  %48 = load i32, ptr %13, align 4
  %49 = add i32 %48, 4
  store i32 %49, ptr %13, align 4
  %50 = load i32, ptr %13, align 4
  call void @llvm.lifetime.end.p0(i64 5, ptr %17) #9
  call void @llvm.lifetime.end.p0(i64 8, ptr %16) #9
  call void @llvm.lifetime.end.p0(i64 8, ptr %15) #9
  ret i32 %50
}