; Function Attrs: null_pointer_is_valid sspstrong uwtable
define hidden noundef i32 @dissect_ascii_uint32(ptr noundef %0, i32 noundef %1, i32 noundef %2, i32 noundef %3, ptr noundef %4, i32 noundef %5, ptr noundef writeonly captures(address_is_null) %6) local_unnamed_addr #0 {
  %8 = alloca [5 x i8], align 1
  call void @llvm.lifetime.start.p0(i64 5, ptr nonnull %8) #6
  %.not = icmp eq ptr %6, null
  br i1 %.not, label %9, label %10

9:                                                ; preds = %7
  tail call void (ptr, ...) @proto_report_dissector_bug(ptr noundef nonnull @.str, ptr noundef nonnull @.str.1, i32 noundef 114, ptr noundef nonnull @.str.2) #7
  unreachable

10:                                               ; preds = %7
  %11 = call ptr @tvb_memcpy(ptr noundef %4, ptr noundef nonnull %8, i32 noundef %5, i64 noundef 4)
  %12 = getelementptr inbounds nuw i8, ptr %8, i64 4
  store i8 0, ptr %12, align 1
  %13 = call ptr @proto_tree_add_item(ptr noundef %0, i32 noundef %1, ptr noundef %4, i32 noundef %5, i32 noundef 4, i32 noundef 0)
  %14 = call ptr @proto_item_add_subtree(ptr noundef %13, i32 noundef %2)
  %15 = call i64 @g_ascii_strtoull(ptr noundef nonnull %8, ptr noundef null, i32 noundef 16)
  %16 = trunc i64 %15 to i32
  store i32 %16, ptr %6, align 4
  %17 = call ptr @proto_tree_add_uint(ptr noundef %14, i32 noundef %3, ptr noundef %4, i32 noundef %5, i32 noundef 4, i32 noundef %16)
  %18 = add i32 %5, 4
  call void @llvm.lifetime.end.p0(i64 5, ptr nonnull %8) #6
  ret i32 %18
}